(dp0
S'global_data'
p1
(dp2
S'control'
p3
(dp4
S'route'
p5
V192.168.24.1
p6
sS'mask'
p7
I24
sS'ec2'
p8
V192.168.24.1
p9
ssS'major'
p10
I1
sS'management'
p11
(dp12
S'start'
p13
V172.20.0.10
p14
sS'cidr'
p15
V172.20.0.0/24
p16
sS'vlan'
p17
I6
sS'end'
p18
V172.20.0.250
p19
ssS'dns2'
p20
V8.8.4.4
p21
sS'dns1'
p22
V192.168.23.1
p23
sS'storage'
p24
(dp25
g13
V172.18.0.10
p26
sg15
V172.18.0.0/24
p27
sg17
I3
sg18
V172.18.0.250
p28
ssS'auto_routes'
p29
I01
sS'bond_options'
p30
V
p31
sS'version'
p32
I2
sS'external'
p33
(dp34
S'bridge'
p35
V''
p36
sg18
V10.0.0.50
p37
sg17
I1
sg13
V10.0.0.10
p38
sg15
V10.0.0.0/24
p39
sS'gateway'
p40
V10.0.0.1
p41
ssS'internal_api'
p42
(dp43
g13
V172.17.0.10
p44
sg15
V172.17.0.0/24
p45
sg17
I2
sg18
V172.17.0.250
p46
ssS'ipv6'
p47
I00
sS'storage_mgmt'
p48
(dp49
g13
V172.19.0.10
p50
sg15
V172.19.0.0/24
p51
sg17
I4
sg18
V172.19.0.250
p52
ssS'minor'
p53
I2
sS'tenant'
p54
(dp55
g13
V172.16.0.10
p56
sg15
V172.16.0.0/24
p57
sg17
I5
sg18
V172.16.0.250
p58
sssS'data'
p59
(dp60
S'cinder-storage.yaml'
p61
(lp62
sS'ceph-storage.yaml'
p63
(lp64
sS'controller.yaml'
p65
(lp66
(dp67
Vdns_servers
p68
V{get_param: DnsServers}
p69
sVaddresses
p70
(lp71
sVmtu
p72
I-1
sVnetwork
p73
VNone
p74
sVmembers
p75
(lp76
(dp77
Vnetwork
p78
VControlPlane
p79
sVbond_type
p80
Vovs
p81
sVovs_options
p82
V{get_param: BondInterfaceOvsOptions}
p83
sVmtu
p84
I-1
sS'members'
p85
(lp86
(dp87
Vaddresses
p88
(lp89
sVnetwork
p90
VNone
p91
sVprimary
p92
I01
sVmtu
p93
I-1
sVport_name
p94
g31
sVroutes
p95
(lp96
sVuse_dhcp
p97
I00
sVtype
p98
Vinterface
p99
sVname
p100
Vnic1
p101
sa(dp102
Vaddresses
p103
(lp104
sVnetwork
p105
VNone
p106
sVprimary
p107
I00
sVmtu
p108
I-1
sVport_name
p109
g31
sVroutes
p110
(lp111
sVuse_dhcp
p112
I00
sVtype
p113
Vinterface
p114
sVname
p115
Vnic2
p116
sasVroutes
p117
(lp118
sVtype
p119
Vovs_bond
p120
sVname
p121
Vbond1
p122
sasVroutes
p123
(lp124
sVuse_dhcp
p125
I00
sVtype
p126
Vovs_bridge
p127
sVname
p128
Vbr-ctl
p129
sasS'swift-storage.yaml'
p130
(lp131
sS'compute.yaml'
p132
(lp133
(dp134
Vdns_servers
p135
V{get_param: DnsServers}
p136
sVaddresses
p137
(lp138
sVmtu
p139
I-1
sVnetwork
p140
VNone
p141
sVmembers
p142
(lp143
(dp144
Vnetwork
p145
VControlPlane
p146
sVbond_type
p147
Vovs
p148
sVovs_options
p149
V{get_param: BondInterfaceOvsOptions}
p150
sVmtu
p151
I-1
sg85
(lp152
(dp153
Vaddresses
p154
(lp155
sVnetwork
p156
VNone
p157
sVprimary
p158
I01
sVmtu
p159
I-1
sVport_name
p160
g31
sVroutes
p161
(lp162
sVuse_dhcp
p163
I00
sVtype
p164
Vinterface
p165
sVname
p166
Vnic1
p167
sa(dp168
Vaddresses
p169
(lp170
sVnetwork
p171
VNone
p172
sVprimary
p173
I00
sVmtu
p174
I-1
sVport_name
p175
g31
sVroutes
p176
(lp177
sVuse_dhcp
p178
I00
sVtype
p179
Vinterface
p180
sVname
p181
Vnic2
p182
sasVroutes
p183
(lp184
sVtype
p185
Vovs_bond
p186
sVname
p187
Vbond1
p188
sasVroutes
p189
(lp190
sVuse_dhcp
p191
I00
sVtype
p192
Vovs_bridge
p193
sVname
p194
Vbr-ctl
p195
sass.